target datalayout = "e-m:e-p270:32:32-p271:32:32-p272:64:64-i64:64-i128:128-f80:128-n8:16:32:64-S128"
target triple = "x86_64-pc-linux-gnu"

%struct.evp_aead_st = type { i8, i8, i8, i8, ptr, ptr, ptr, ptr, ptr, ptr, ptr }
%struct.evp_aead_ctx_st = type { ptr, ptr }

@.str = private unnamed_addr constant [124 x i8] c"generated/home/dtcxzyw/WorkSpace/Projects/compilers/llvm-opt-benchmark/bench/libquic/libquic/boringssl/crypto/cipher/aead.c\00", align 1

; Function Attrs: nounwind uwtable
define hidden i32 @EVP_AEAD_CTX_init_with_direction(ptr noundef %0, ptr noundef %1, ptr noundef %2, i64 noundef %3, i64 noundef %4, i32 noundef %5) #0 {
  %7 = alloca i32, align 4
  %8 = alloca ptr, align 8
  %9 = alloca ptr, align 8
  %10 = alloca ptr, align 8
  %11 = alloca i64, align 8
  %12 = alloca i64, align 8
  %13 = alloca i32, align 4
  %14 = alloca i32, align 4
  store ptr %0, ptr %8, align 8, !tbaa !16
  store ptr %1, ptr %9, align 8, !tbaa !6
  store ptr %2, ptr %10, align 8, !tbaa !18
  store i64 %3, ptr %11, align 8, !tbaa !20
  store i64 %4, ptr %12, align 8, !tbaa !20
  store i32 %5, ptr %13, align 4, !tbaa !27
  %15 = load i64, ptr %11, align 8, !tbaa !20
  %16 = load ptr, ptr %9, align 8, !tbaa !6
  %17 = getelementptr inbounds nuw %struct.evp_aead_st, ptr %16, i32 0, i32 0
  %18 = load i8, ptr %17, align 8, !tbaa !11
  %19 = zext i8 %18 to i64
  %20 = icmp ne i64 %15, %19
  br i1 %20, label %21, label %24

21:                                               ; preds = %6
  call void @ERR_put_error(i32 noundef 30, i32 noundef 0, i32 noundef 120, ptr noundef @.str, i32 noundef 54)
  %22 = load ptr, ptr %8, align 8, !tbaa !16
  %23 = getelementptr inbounds nuw %struct.evp_aead_ctx_st, ptr %22, i32 0, i32 0
  store ptr null, ptr %23, align 8, !tbaa !25
  store i32 0, ptr %7, align 4
  br label %59

24:                                               ; preds = %6
  %25 = load ptr, ptr %9, align 8, !tbaa !6
  %26 = load ptr, ptr %8, align 8, !tbaa !16
  %27 = getelementptr inbounds nuw %struct.evp_aead_ctx_st, ptr %26, i32 0, i32 0
  store ptr %25, ptr %27, align 8, !tbaa !25
  call void @llvm.lifetime.start.p0(i64 4, ptr %14) #4
  %28 = load ptr, ptr %9, align 8, !tbaa !6
  %29 = getelementptr inbounds nuw %struct.evp_aead_st, ptr %28, i32 0, i32 4
  %30 = load ptr, ptr %29, align 8, !tbaa !24
  %31 = icmp ne ptr %30, null
  br i1 %31, label %32, label %41

32:                                               ; preds = %24
  %33 = load ptr, ptr %9, align 8, !tbaa !6
  %34 = getelementptr inbounds nuw %struct.evp_aead_st, ptr %33, i32 0, i32 4
  %35 = load ptr, ptr %34, align 8, !tbaa !24
  %36 = load ptr, ptr %8, align 8, !tbaa !16
  %37 = load ptr, ptr %10, align 8, !tbaa !18
  %38 = load i64, ptr %11, align 8, !tbaa !20
  %39 = load i64, ptr %12, align 8, !tbaa !20
  %40 = call i32 %35(ptr noundef %36, ptr noundef %37, i64 noundef %38, i64 noundef %39)
  store i32 %40, ptr %14, align 4, !tbaa !27
  br label %51

41:                                               ; preds = %24
  %42 = load ptr, ptr %9, align 8, !tbaa !6
  %43 = getelementptr inbounds nuw %struct.evp_aead_st, ptr %42, i32 0, i32 5
  %44 = load ptr, ptr %43, align 8, !tbaa !29
  %45 = load ptr, ptr %8, align 8, !tbaa !16
  %46 = load ptr, ptr %10, align 8, !tbaa !18
  %47 = load i64, ptr %11, align 8, !tbaa !20
  %48 = load i64, ptr %12, align 8, !tbaa !20
  %49 = load i32, ptr %13, align 4, !tbaa !27
  %50 = call i32 %44(ptr noundef %45, ptr noundef %46, i64 noundef %47, i64 noundef %48, i32 noundef %49)
  store i32 %50, ptr %14, align 4, !tbaa !27
  br label %51

51:                                               ; preds = %41, %32
  %52 = load i32, ptr %14, align 4, !tbaa !27
  %53 = icmp ne i32 %52, 0
  br i1 %53, label %57, label %54

54:                                               ; preds = %51
  %55 = load ptr, ptr %8, align 8, !tbaa !16
  %56 = getelementptr inbounds nuw %struct.evp_aead_ctx_st, ptr %55, i32 0, i32 0
  store ptr null, ptr %56, align 8, !tbaa !25
  br label %57

57:                                               ; preds = %54, %51
  %58 = load i32, ptr %14, align 4, !tbaa !27
  store i32 %58, ptr %7, align 4
  call void @llvm.lifetime.end.p0(i64 4, ptr %14) #4
  br label %59

59:                                               ; preds = %57, %21
  %60 = load i32, ptr %7, align 4
  ret i32 %60
}

; Function Attrs: nounwind uwtable
define hidden i32 @EVP_AEAD_CTX_init(ptr noundef %0, ptr noundef %1, ptr noundef %2, i64 noundef %3, i64 noundef %4, ptr noundef %5) #0 {
  %7 = alloca i32, align 4
  %8 = alloca ptr, align 8
  %9 = alloca ptr, align 8
  %10 = alloca ptr, align 8
  %11 = alloca i64, align 8
  %12 = alloca i64, align 8
  %13 = alloca ptr, align 8
  store ptr %0, ptr %8, align 8, !tbaa !16
  store ptr %1, ptr %9, align 8, !tbaa !6
  store ptr %2, ptr %10, align 8, !tbaa !18
  store i64 %3, ptr %11, align 8, !tbaa !20
  store i64 %4, ptr %12, align 8, !tbaa !20
  store ptr %5, ptr %13, align 8, !tbaa !22
  %14 = load ptr, ptr %9, align 8, !tbaa !6
  %15 = getelementptr inbounds nuw %struct.evp_aead_st, ptr %14, i32 0, i32 4
  %16 = load ptr, ptr %15, align 8, !tbaa !24
  %17 = icmp ne ptr %16, null
  br i1 %17, label %21, label %18

18:                                               ; preds = %6
  call void @ERR_put_error(i32 noundef 30, i32 noundef 0, i32 noundef 124, ptr noundef @.str, i32 noundef 41)
  %19 = load ptr, ptr %8, align 8, !tbaa !16
  %20 = getelementptr inbounds nuw %struct.evp_aead_ctx_st, ptr %19, i32 0, i32 0
  store ptr null, ptr %20, align 8, !tbaa !25
  store i32 0, ptr %7, align 4
  br label %28

21:                                               ; preds = %6
  %22 = load ptr, ptr %8, align 8, !tbaa !16
  %23 = load ptr, ptr %9, align 8, !tbaa !6
  %24 = load ptr, ptr %10, align 8, !tbaa !18
  %25 = load i64, ptr %11, align 8, !tbaa !20
  %26 = load i64, ptr %12, align 8, !tbaa !20
  %27 = call i32 @EVP_AEAD_CTX_init_with_direction(ptr noundef %22, ptr noundef %23, ptr noundef %24, i64 noundef %25, i64 noundef %26, i32 noundef 0)
  store i32 %27, ptr %7, align 4
  br label %28

28:                                               ; preds = %21, %18
  %29 = load i32, ptr %7, align 4
  ret i32 %29
}