; Function Attrs: nounwind uwtable
define hidden i32 @EVP_AEAD_CTX_init(ptr noundef initializes((0, 8)) %0, ptr noundef %1, ptr noundef %2, i64 noundef %3, i64 noundef %4, ptr noundef readnone captures(none) %5) local_unnamed_addr #3 {
  %7 = getelementptr inbounds nuw i8, ptr %1, i64 8
  %8 = load ptr, ptr %7, align 8, !tbaa !14
  %.not = icmp eq ptr %8, null
  br i1 %.not, label %9, label %10

9:                                                ; preds = %6
  tail call void @ERR_put_error(i32 noundef 30, i32 noundef 0, i32 noundef 124, ptr noundef nonnull @.str, i32 noundef 41) #5
  br label %EVP_AEAD_CTX_init_with_direction.exit.sink.split

10:                                               ; preds = %6
  %11 = load i8, ptr %1, align 8, !tbaa !6
  %12 = zext i8 %11 to i64
  %.not.i = icmp eq i64 %3, %12
  br i1 %.not.i, label %14, label %13

13:                                               ; preds = %10
  tail call void @ERR_put_error(i32 noundef 30, i32 noundef 0, i32 noundef 120, ptr noundef nonnull @.str, i32 noundef 54) #5
  br label %EVP_AEAD_CTX_init_with_direction.exit.sink.split

14:                                               ; preds = %10
  store ptr %1, ptr %0, align 8, !tbaa !15
  %15 = tail call i32 %8(ptr noundef nonnull %0, ptr noundef %2, i64 noundef %3, i64 noundef %4) #5
  %.not24.i = icmp eq i32 %15, 0
  br i1 %.not24.i, label %EVP_AEAD_CTX_init_with_direction.exit.sink.split, label %EVP_AEAD_CTX_init_with_direction.exit

EVP_AEAD_CTX_init_with_direction.exit.sink.split: ; preds = %13, %14, %9
  store ptr null, ptr %0, align 8, !tbaa !15
  br label %EVP_AEAD_CTX_init_with_direction.exit

EVP_AEAD_CTX_init_with_direction.exit:            ; preds = %EVP_AEAD_CTX_init_with_direction.exit.sink.split, %14
  %.0 = phi i32 [ %15, %14 ], [ 0, %EVP_AEAD_CTX_init_with_direction.exit.sink.split ]
  ret i32 %.0
}